; Function Attrs: nounwind uwtable
define ptr @l_Array_mapMUnsafe_map___at_Lean_Meta_MatcherApp_inferMatchType___spec__12(ptr noundef %0, i64 noundef %1, i64 noundef %2, ptr noundef %3) local_unnamed_addr #1 {
  %.not48 = icmp ult i64 %2, %1
  br i1 %.not48, label %.lr.ph, label %._crit_edge

.lr.ph:                                           ; preds = %4
  %5 = ptrtoint ptr %0 to i64
  %6 = and i64 %5, 1
  %.not47 = icmp eq i64 %6, 0
  %7 = lshr i64 %5, 1
  br label %8

8:                                                ; preds = %.lr.ph, %71
  %.02050 = phi i64 [ %2, %.lr.ph ], [ %55, %71 ]
  %.02249 = phi ptr [ %3, %.lr.ph ], [ %.0.i.i32, %71 ]
  %9 = getelementptr inbounds nuw i8, ptr %.02249, i64 24
  %10 = getelementptr inbounds nuw [0 x ptr], ptr %9, i64 0, i64 %.02050
  %11 = load ptr, ptr %10, align 8, !tbaa !4
  %12 = ptrtoint ptr %11 to i64
  %13 = and i64 %12, 1
  %.not.i25 = icmp eq i64 %13, 0
  br i1 %.not.i25, label %14, label %lean_array_uget.exit

14:                                               ; preds = %8
  %.val.i.i = load i32, ptr %11, align 4, !tbaa !8
  %15 = icmp sgt i32 %.val.i.i, 0
  br i1 %15, label %16, label %18, !prof !11

16:                                               ; preds = %14
  %17 = add nuw i32 %.val.i.i, 1
  store i32 %17, ptr %11, align 4, !tbaa !8
  br label %lean_array_uget.exit

18:                                               ; preds = %14
  %.not.i.i = icmp eq i32 %.val.i.i, 0
  br i1 %.not.i.i, label %lean_array_uget.exit, label %19

19:                                               ; preds = %18
  tail call void @lean_inc_ref_cold(ptr noundef nonnull %11) #4
  br label %lean_array_uget.exit

lean_array_uget.exit:                             ; preds = %8, %16, %18, %19
  %.val.i.i26 = load i32, ptr %.02249, align 4, !tbaa !8
  %20 = icmp eq i32 %.val.i.i26, 1
  br i1 %20, label %lean_ensure_exclusive_array.exit.i, label %21

21:                                               ; preds = %lean_array_uget.exit
  %22 = tail call ptr @lean_copy_expand_array(ptr noundef nonnull %.02249, i1 noundef zeroext false) #4
  br label %lean_ensure_exclusive_array.exit.i

lean_ensure_exclusive_array.exit.i:               ; preds = %21, %lean_array_uget.exit
  %.0.i.i = phi ptr [ %22, %21 ], [ %.02249, %lean_array_uget.exit ]
  %23 = getelementptr inbounds nuw i8, ptr %.0.i.i, i64 24
  %24 = getelementptr inbounds nuw ptr, ptr %23, i64 %.02050
  %25 = load ptr, ptr %24, align 8, !tbaa !4
  %26 = ptrtoint ptr %25 to i64
  %27 = and i64 %26, 1
  %.not.i27 = icmp eq i64 %27, 0
  br i1 %.not.i27, label %28, label %lean_array_uset.exit

28:                                               ; preds = %lean_ensure_exclusive_array.exit.i
  %29 = load i32, ptr %25, align 4, !tbaa !8
  %30 = icmp sgt i32 %29, 1
  br i1 %30, label %31, label %33, !prof !11

31:                                               ; preds = %28
  %32 = add nsw i32 %29, -1
  store i32 %32, ptr %25, align 4, !tbaa !8
  br label %lean_array_uset.exit

33:                                               ; preds = %28
  %.not.i.i28 = icmp eq i32 %29, 0
  br i1 %.not.i.i28, label %lean_array_uset.exit, label %34

34:                                               ; preds = %33
  tail call void @lean_dec_ref_cold(ptr noundef nonnull %25) #4
  br label %lean_array_uset.exit

lean_array_uset.exit:                             ; preds = %lean_ensure_exclusive_array.exit.i, %31, %33, %34
  store ptr inttoptr (i64 1 to ptr), ptr %24, align 8, !tbaa !4
  br i1 %.not.i25, label %47, label %35, !prof !17

35:                                               ; preds = %lean_array_uset.exit
  br i1 %.not47, label %lean_nat_add.exit.thread38, label %37, !prof !17

lean_nat_add.exit.thread38:                       ; preds = %35
  %36 = tail call ptr @lean_nat_big_add(ptr noundef %11, ptr noundef %0) #4
  br label %lean_dec.exit

37:                                               ; preds = %35
  %38 = lshr i64 %12, 1
  %39 = add nuw i64 %38, %7
  %40 = icmp sgt i64 %39, -1
  br i1 %40, label %41, label %45, !prof !11

41:                                               ; preds = %37
  %42 = shl nuw i64 %39, 1
  %43 = or disjoint i64 %42, 1
  %44 = inttoptr i64 %43 to ptr
  br label %lean_dec.exit

45:                                               ; preds = %37
  %46 = tail call ptr @lean_big_usize_to_nat(i64 noundef range(i64 0, -1) %39) #4
  br label %lean_dec.exit

47:                                               ; preds = %lean_array_uset.exit
  %48 = tail call ptr @lean_nat_big_add(ptr noundef %11, ptr noundef %0) #4
  %49 = load i32, ptr %11, align 4, !tbaa !8
  %50 = icmp sgt i32 %49, 1
  br i1 %50, label %51, label %53, !prof !11

51:                                               ; preds = %47
  %52 = add nsw i32 %49, -1
  store i32 %52, ptr %11, align 4, !tbaa !8
  br label %lean_dec.exit

53:                                               ; preds = %47
  %.not.i = icmp eq i32 %49, 0
  br i1 %.not.i, label %lean_dec.exit, label %54

54:                                               ; preds = %53
  tail call void @lean_dec_ref_cold(ptr noundef nonnull %11) #4
  br label %lean_dec.exit

lean_dec.exit:                                    ; preds = %41, %45, %54, %53, %51, %lean_nat_add.exit.thread38
  %.0.i37 = phi ptr [ %36, %lean_nat_add.exit.thread38 ], [ %48, %51 ], [ %48, %53 ], [ %48, %54 ], [ %46, %45 ], [ %44, %41 ]
  %55 = add nuw i64 %.02050, 1
  %.val.i.i30 = load i32, ptr %.0.i.i, align 4, !tbaa !8
  %56 = icmp eq i32 %.val.i.i30, 1
  br i1 %56, label %lean_ensure_exclusive_array.exit.i31, label %57

57:                                               ; preds = %lean_dec.exit
  %58 = tail call ptr @lean_copy_expand_array(ptr noundef nonnull %.0.i.i, i1 noundef zeroext false) #4
  br label %lean_ensure_exclusive_array.exit.i31

lean_ensure_exclusive_array.exit.i31:             ; preds = %57, %lean_dec.exit
  %.0.i.i32 = phi ptr [ %58, %57 ], [ %.0.i.i, %lean_dec.exit ]
  %59 = getelementptr inbounds nuw i8, ptr %.0.i.i32, i64 24
  %60 = getelementptr inbounds nuw ptr, ptr %59, i64 %.02050
  %61 = load ptr, ptr %60, align 8, !tbaa !4
  %62 = ptrtoint ptr %61 to i64
  %63 = and i64 %62, 1
  %.not.i33 = icmp eq i64 %63, 0
  br i1 %.not.i33, label %64, label %71

64:                                               ; preds = %lean_ensure_exclusive_array.exit.i31
  %65 = load i32, ptr %61, align 4, !tbaa !8
  %66 = icmp sgt i32 %65, 1
  br i1 %66, label %67, label %69, !prof !11

67:                                               ; preds = %64
  %68 = add nsw i32 %65, -1
  store i32 %68, ptr %61, align 4, !tbaa !8
  br label %71

69:                                               ; preds = %64
  %.not.i.i34 = icmp eq i32 %65, 0
  br i1 %.not.i.i34, label %71, label %70

70:                                               ; preds = %69
  tail call void @lean_dec_ref_cold(ptr noundef nonnull %61) #4
  br label %71

71:                                               ; preds = %70, %69, %67, %lean_ensure_exclusive_array.exit.i31
  store ptr %.0.i37, ptr %60, align 8, !tbaa !4
  %exitcond.not = icmp eq i64 %55, %1
  br i1 %exitcond.not, label %._crit_edge, label %8

._crit_edge:                                      ; preds = %71, %4
  %.022.lcssa = phi ptr [ %3, %4 ], [ %.0.i.i32, %71 ]
  ret ptr %.022.lcssa
}